target datalayout = "e-m:e-p270:32:32-p271:32:32-p272:64:64-i64:64-i128:128-f80:128-n8:16:32:64-S128"
target triple = "x86_64-pc-linux-gnu"

%"class.sat::literal" = type { i32 }
%"class.smt::justification.base" = type <{ ptr, i8 }>
%class.obj_ref = type { ptr, ptr }
%class.ref_vector.48 = type { %class.ref_vector_core.49 }
%class.ref_vector_core.49 = type { %class.ref_manager_wrapper.50, %class.ptr_vector.51 }
%class.ref_manager_wrapper.50 = type { ptr }
%class.ptr_vector.51 = type { %class.vector.52 }
%class.vector.52 = type { ptr }
%class.ptr_buffer = type { %class.buffer }
%class.buffer = type { ptr, i32, i32, [128 x i8] }
%class.ptr_vector.165 = type { %class.vector.166 }
%class.vector.166 = type { ptr }
%class.ptr_vector = type { %class.vector.3 }
%class.vector.3 = type { ptr }
%class.svector.4 = type { %class.vector.5 }
%class.vector.5 = type { ptr }
%class.obj_ref.80 = type { ptr, ptr }
%class.svector.194 = type { %class.vector.195 }
%class.vector.195 = type { ptr }
%class.ref_vector = type { %class.ref_vector_core }
%class.ref_vector_core = type { %class.ref_manager_wrapper, %class.ptr_vector }
%class.ref_manager_wrapper = type { ptr }
%class.ref_vector.151 = type { %class.ref_vector_core.152 }
%class.ref_vector_core.152 = type { %class.ref_manager_wrapper.153, %class.ptr_vector.154 }
%class.ref_manager_wrapper.153 = type { ptr }
%class.ptr_vector.154 = type { %class.vector.155 }
%class.vector.155 = type { ptr }
%"class.smt::conflict_resolution" = type <{ ptr, ptr, ptr, ptr, ptr, ptr, i32, [4 x i8], %class.svector.194, %class.ref_vector, i32, i32, %class.ptr_vector.165, i32, [4 x i8], %class.svector.286, %class.obj_pair_set, ptr, ptr, %class.svector.289, %class.obj_map.291, %class.obj_pair_map.296, %class.map.301, %class.ref_vector.48, %class.ref_vector.151, %class.obj_ref.80, %class.svector.194, %class.svector.194, %class.svector.4, %class.svector.4, %class.approx_set_tpl, [4 x i8] }>
%class.svector.286 = type { %class.vector.287 }
%class.vector.287 = type { ptr }
%class.obj_pair_set = type { %class.chashtable.288 }
%class.chashtable.288 = type { ptr, i32, i32, i32, i32, i32, i32, i32, ptr, ptr, ptr }
%class.svector.289 = type { %class.vector.290 }
%class.vector.290 = type { ptr }
%class.obj_map.291 = type { %class.core_hashtable.292 }
%class.core_hashtable.292 = type <{ ptr, i32, i32, i32, [4 x i8] }>
%class.obj_pair_map.296 = type { %class.core_hashtable.297 }
%class.core_hashtable.297 = type <{ ptr, i32, i32, i32, [4 x i8] }>
%class.map.301 = type { %class.table2map.302 }
%class.table2map.302 = type { %class.core_hashtable.303 }
%class.core_hashtable.303 = type <{ ptr, i32, i32, i32, [4 x i8] }>
%class.approx_set_tpl = type { i32 }
%"class.smt::simple_justification" = type { %"class.smt::justification.base", i32, ptr }
%class.vector.308 = type { ptr }
%"class.smt::ext_simple_justification" = type { %"class.smt::simple_justification", i32, ptr }
%"class.smt::ext_theory_propagation_justification" = type <{ %"class.smt::ext_theory_simple_justification", %"class.sat::literal", [4 x i8] }>
%"class.smt::ext_theory_simple_justification" = type { %"class.smt::ext_simple_justification", i32, %class.vector.308 }

; Function Attrs: mustprogress nounwind uwtable
define linkonce_odr hidden void @_ZN6bufferIP3appLb0ELj16EEC2Ev(ptr noundef nonnull align 8 dereferenceable(144) %0) unnamed_addr #4 comdat align 2 {
  %2 = alloca ptr, align 8
  store ptr %0, ptr %2, align 8, !tbaa !635
  %3 = load ptr, ptr %2, align 8
  %4 = getelementptr inbounds nuw %class.buffer, ptr %3, i32 0, i32 0
  %5 = getelementptr inbounds nuw %class.buffer, ptr %3, i32 0, i32 3
  %6 = getelementptr inbounds [128 x i8], ptr %5, i64 0, i64 0
  store ptr %6, ptr %4, align 8, !tbaa !640
  %7 = getelementptr inbounds nuw %class.buffer, ptr %3, i32 0, i32 1
  store i32 0, ptr %7, align 8, !tbaa !638
  %8 = getelementptr inbounds nuw %class.buffer, ptr %3, i32 0, i32 2
  store i32 16, ptr %8, align 4, !tbaa !639
  ret void
}

; Function Attrs: mustprogress nounwind uwtable
define linkonce_odr hidden noundef ptr @_ZNK6vectorI9parameterLb1EjE4dataEv(ptr noundef nonnull align 8 dereferenceable(8) %0) #4 comdat align 2 {
  %2 = alloca ptr, align 8
  store ptr %0, ptr %2, align 8, !tbaa !682
  %3 = load ptr, ptr %2, align 8
  %4 = getelementptr inbounds nuw %class.vector.308, ptr %3, i32 0, i32 0
  %5 = load ptr, ptr %4, align 8, !tbaa !684
  ret ptr %5
}

; Function Attrs: mustprogress nounwind uwtable
define linkonce_odr hidden noundef i32 @_ZNK6vectorI9parameterLb1EjE4sizeEv(ptr noundef nonnull align 8 dereferenceable(8) %0) #4 comdat align 2 {
  %2 = alloca i32, align 4
  %3 = alloca ptr, align 8
  store ptr %0, ptr %3, align 8, !tbaa !682
  %4 = load ptr, ptr %3, align 8
  %5 = getelementptr inbounds nuw %class.vector.308, ptr %4, i32 0, i32 0
  %6 = load ptr, ptr %5, align 8, !tbaa !684
  %7 = icmp eq ptr %6, null
  br i1 %7, label %8, label %9

8:                                                ; preds = %1
  store i32 0, ptr %2, align 4
  br label %14

9:                                                ; preds = %1
  %10 = getelementptr inbounds nuw %class.vector.308, ptr %4, i32 0, i32 0
  %11 = load ptr, ptr %10, align 8, !tbaa !684
  %12 = getelementptr inbounds i32, ptr %11, i64 -1
  %13 = load i32, ptr %12, align 4, !tbaa !8
  store i32 %13, ptr %2, align 4
  br label %14

14:                                               ; preds = %9, %8
  %15 = load i32, ptr %2, align 4
  ret i32 %15
}

; Function Attrs: mustprogress nounwind uwtable
define linkonce_odr hidden noundef ptr @_ZNK6bufferIP3appLb0ELj16EE4dataEv(ptr noundef nonnull align 8 dereferenceable(144) %0) #4 comdat align 2 {
  %2 = alloca ptr, align 8
  store ptr %0, ptr %2, align 8, !tbaa !635
  %3 = load ptr, ptr %2, align 8
  %4 = getelementptr inbounds nuw %class.buffer, ptr %3, i32 0, i32 0
  %5 = load ptr, ptr %4, align 8, !tbaa !640
  ret ptr %5
}

; Function Attrs: mustprogress nounwind uwtable
define linkonce_odr hidden noundef i32 @_ZNK6bufferIP3appLb0ELj16EE4sizeEv(ptr noundef nonnull align 8 dereferenceable(144) %0) #4 comdat align 2 {
  %2 = alloca ptr, align 8
  store ptr %0, ptr %2, align 8, !tbaa !635
  %3 = load ptr, ptr %2, align 8
  %4 = getelementptr inbounds nuw %class.buffer, ptr %3, i32 0, i32 1
  %5 = load i32, ptr %4, align 8, !tbaa !638
  ret i32 %5
}

; Function Attrs: mustprogress nounwind uwtable
define linkonce_odr hidden noundef ptr @_ZNK7obj_refI4expr11ast_managerEcvPS0_Ev(ptr noundef nonnull align 8 dereferenceable(16) %0) #4 comdat align 2 {
  %2 = alloca ptr, align 8
  store ptr %0, ptr %2, align 8, !tbaa !677
  %3 = load ptr, ptr %2, align 8
  %4 = getelementptr inbounds nuw %class.obj_ref, ptr %3, i32 0, i32 0
  %5 = load ptr, ptr %4, align 8, !tbaa !679
  ret ptr %5
}

; Function Attrs: mustprogress nounwind uwtable
define linkonce_odr hidden void @_ZN7obj_refI4expr11ast_managerEC2ERS1_(ptr noundef nonnull align 8 dereferenceable(16) %0, ptr noundef nonnull align 8 dereferenceable(976) %1) unnamed_addr #4 comdat align 2 {
  %3 = alloca ptr, align 8
  %4 = alloca ptr, align 8
  store ptr %0, ptr %3, align 8, !tbaa !677
  store ptr %1, ptr %4, align 8, !tbaa !530
  %5 = load ptr, ptr %3, align 8
  %6 = getelementptr inbounds nuw %class.obj_ref, ptr %5, i32 0, i32 0
  store ptr null, ptr %6, align 8, !tbaa !679
  %7 = getelementptr inbounds nuw %class.obj_ref, ptr %5, i32 0, i32 1
  %8 = load ptr, ptr %4, align 8, !tbaa !530
  store ptr %8, ptr %7, align 8, !tbaa !530
  ret void
}

; Function Attrs: mustprogress nounwind uwtable
define linkonce_odr hidden noundef nonnull align 8 dereferenceable(976) ptr @_ZN3smt19conflict_resolution11get_managerEv(ptr noundef nonnull align 8 dereferenceable(356) %0) #4 comdat align 2 {
  %2 = alloca ptr, align 8
  store ptr %0, ptr %2, align 8, !tbaa !533
  %3 = load ptr, ptr %2, align 8
  %4 = getelementptr inbounds nuw %"class.smt::conflict_resolution", ptr %3, i32 0, i32 1
  %5 = load ptr, ptr %4, align 8, !tbaa !571
  ret ptr %5
}

; Function Attrs: mustprogress nounwind uwtable
define linkonce_odr hidden noundef nonnull align 8 dereferenceable(10544) ptr @_ZN3smt19conflict_resolution11get_contextEv(ptr noundef nonnull align 8 dereferenceable(356) %0) #4 comdat align 2 {
  %2 = alloca ptr, align 8
  store ptr %0, ptr %2, align 8, !tbaa !533
  %3 = load ptr, ptr %2, align 8
  %4 = getelementptr inbounds nuw %"class.smt::conflict_resolution", ptr %3, i32 0, i32 3
  %5 = load ptr, ptr %4, align 8, !tbaa !659
  ret ptr %5
}

; Function Attrs: inlinehint mustprogress nounwind uwtable
define linkonce_odr hidden void @_ZN10ptr_bufferI3appLj16EEC2Ev(ptr noundef nonnull align 8 dereferenceable(144) %0) unnamed_addr #9 comdat align 2 {
  %2 = alloca ptr, align 8
  store ptr %0, ptr %2, align 8, !tbaa !592
  %3 = load ptr, ptr %2, align 8
  call void @_ZN6bufferIP3appLb0ELj16EEC2Ev(ptr noundef nonnull align 8 dereferenceable(144) %3) #3
  ret void
}

; Function Attrs: mustprogress uwtable
define hidden noundef ptr @_ZN3smt36ext_theory_propagation_justification8mk_proofERNS_19conflict_resolutionE(ptr noundef nonnull align 8 dereferenceable(60) %0, ptr noundef nonnull align 8 dereferenceable(356) %1) unnamed_addr #6 align 2 personality ptr @__gxx_personality_v0 {
  %3 = alloca ptr, align 8
  %4 = alloca ptr, align 8
  %5 = alloca ptr, align 8
  %6 = alloca %class.ptr_buffer, align 8
  %7 = alloca ptr, align 8
  %8 = alloca i32, align 4
  %9 = alloca i32, align 4
  %10 = alloca ptr, align 8
  %11 = alloca ptr, align 8
  %12 = alloca %class.obj_ref, align 8
  %13 = alloca %"class.sat::literal", align 4
  store ptr %0, ptr %4, align 8, !tbaa !732
  store ptr %1, ptr %5, align 8, !tbaa !533
  %14 = load ptr, ptr %4, align 8
  call void @llvm.lifetime.start.p0(i64 144, ptr %6) #3
  call void @_ZN10ptr_bufferI3appLj16EEC2Ev(ptr noundef nonnull align 8 dereferenceable(144) %6) #3
  %15 = load ptr, ptr %5, align 8, !tbaa !533
  %16 = invoke noundef zeroext i1 @_ZN3smt24ext_simple_justification16antecedent2proofERNS_19conflict_resolutionER10ptr_bufferI3appLj16EE(ptr noundef nonnull align 8 dereferenceable(40) %14, ptr noundef nonnull align 8 dereferenceable(356) %15, ptr noundef nonnull align 8 dereferenceable(144) %6)
          to label %17 unwind label %19

17:                                               ; preds = %2
  br i1 %16, label %23, label %18

18:                                               ; preds = %17
  store ptr null, ptr %3, align 8
  store i32 1, ptr %9, align 4
  br label %73

19:                                               ; preds = %2
  %20 = landingpad { ptr, i32 }
          cleanup
  %21 = extractvalue { ptr, i32 } %20, 0
  store ptr %21, ptr %7, align 8
  %22 = extractvalue { ptr, i32 } %20, 1
  store i32 %22, ptr %8, align 4
  br label %75

23:                                               ; preds = %17
  call void @llvm.lifetime.start.p0(i64 8, ptr %10) #3
  %24 = load ptr, ptr %5, align 8, !tbaa !533
  %25 = invoke noundef nonnull align 8 dereferenceable(10544) ptr @_ZN3smt19conflict_resolution11get_contextEv(ptr noundef nonnull align 8 dereferenceable(356) %24)
          to label %26 unwind label %54

26:                                               ; preds = %23
  store ptr %25, ptr %10, align 8, !tbaa !30
  call void @llvm.lifetime.start.p0(i64 8, ptr %11) #3
  %27 = load ptr, ptr %5, align 8, !tbaa !533
  %28 = invoke noundef nonnull align 8 dereferenceable(976) ptr @_ZN3smt19conflict_resolution11get_managerEv(ptr noundef nonnull align 8 dereferenceable(356) %27)
          to label %29 unwind label %58

29:                                               ; preds = %26
  store ptr %28, ptr %11, align 8, !tbaa !530
  call void @llvm.lifetime.start.p0(i64 16, ptr %12) #3
  %30 = load ptr, ptr %11, align 8, !tbaa !530
  invoke void @_ZN7obj_refI4expr11ast_managerEC2ERS1_(ptr noundef nonnull align 8 dereferenceable(16) %12, ptr noundef nonnull align 8 dereferenceable(976) %30)
          to label %31 unwind label %62

31:                                               ; preds = %29
  %32 = load ptr, ptr %10, align 8, !tbaa !30
  %33 = getelementptr inbounds nuw %"class.smt::ext_theory_propagation_justification", ptr %14, i32 0, i32 1
  call void @llvm.memcpy.p0.p0.i64(ptr align 4 %13, ptr align 8 %33, i64 4, i1 false), !tbaa.struct !543
  %34 = getelementptr inbounds nuw %"class.sat::literal", ptr %13, i32 0, i32 0
  %35 = load i32, ptr %34, align 4
  invoke void @_ZNK3smt7context12literal2exprEN3sat7literalER7obj_refI4expr11ast_managerE(ptr noundef nonnull align 8 dereferenceable(10544) %32, i32 %35, ptr noundef nonnull align 8 dereferenceable(16) %12)
          to label %36 unwind label %66

36:                                               ; preds = %31
  %37 = load ptr, ptr %11, align 8, !tbaa !530
  %38 = getelementptr inbounds nuw %"class.smt::ext_theory_simple_justification", ptr %14, i32 0, i32 1
  %39 = load i32, ptr %38, align 8, !tbaa !734
  %40 = invoke noundef ptr @_ZNK7obj_refI4expr11ast_managerEcvPS0_Ev(ptr noundef nonnull align 8 dereferenceable(16) %12)
          to label %41 unwind label %66

41:                                               ; preds = %36
  %42 = invoke noundef i32 @_ZNK6bufferIP3appLb0ELj16EE4sizeEv(ptr noundef nonnull align 8 dereferenceable(144) %6)
          to label %43 unwind label %66

43:                                               ; preds = %41
  %44 = invoke noundef ptr @_ZNK6bufferIP3appLb0ELj16EE4dataEv(ptr noundef nonnull align 8 dereferenceable(144) %6)
          to label %45 unwind label %66

45:                                               ; preds = %43
  %46 = getelementptr inbounds nuw %"class.smt::ext_theory_simple_justification", ptr %14, i32 0, i32 2
  %47 = invoke noundef i32 @_ZNK6vectorI9parameterLb1EjE4sizeEv(ptr noundef nonnull align 8 dereferenceable(8) %46)
          to label %48 unwind label %66

48:                                               ; preds = %45
  %49 = getelementptr inbounds nuw %"class.smt::ext_theory_simple_justification", ptr %14, i32 0, i32 2
  %50 = invoke noundef ptr @_ZNK6vectorI9parameterLb1EjE4dataEv(ptr noundef nonnull align 8 dereferenceable(8) %49)
          to label %51 unwind label %66

51:                                               ; preds = %48
  %52 = invoke noundef ptr @_ZN11ast_manager11mk_th_lemmaEiP4exprjPKP3appjPK9parameter(ptr noundef nonnull align 8 dereferenceable(976) %37, i32 noundef %39, ptr noundef %40, i32 noundef %42, ptr noundef %44, i32 noundef %47, ptr noundef %50)
          to label %53 unwind label %66

53:                                               ; preds = %51
  store ptr %52, ptr %3, align 8
  store i32 1, ptr %9, align 4
  call void @_ZN7obj_refI4expr11ast_managerED2Ev(ptr noundef nonnull align 8 dereferenceable(16) %12) #3
  call void @llvm.lifetime.end.p0(i64 16, ptr %12) #3
  call void @llvm.lifetime.end.p0(i64 8, ptr %11) #3
  call void @llvm.lifetime.end.p0(i64 8, ptr %10) #3
  br label %73

54:                                               ; preds = %23
  %55 = landingpad { ptr, i32 }
          cleanup
  %56 = extractvalue { ptr, i32 } %55, 0
  store ptr %56, ptr %7, align 8
  %57 = extractvalue { ptr, i32 } %55, 1
  store i32 %57, ptr %8, align 4
  br label %72

58:                                               ; preds = %26
  %59 = landingpad { ptr, i32 }
          cleanup
  %60 = extractvalue { ptr, i32 } %59, 0
  store ptr %60, ptr %7, align 8
  %61 = extractvalue { ptr, i32 } %59, 1
  store i32 %61, ptr %8, align 4
  br label %71

62:                                               ; preds = %29
  %63 = landingpad { ptr, i32 }
          cleanup
  %64 = extractvalue { ptr, i32 } %63, 0
  store ptr %64, ptr %7, align 8
  %65 = extractvalue { ptr, i32 } %63, 1
  store i32 %65, ptr %8, align 4
  br label %70

66:                                               ; preds = %51, %48, %45, %43, %41, %36, %31
  %67 = landingpad { ptr, i32 }
          cleanup
  %68 = extractvalue { ptr, i32 } %67, 0
  store ptr %68, ptr %7, align 8
  %69 = extractvalue { ptr, i32 } %67, 1
  store i32 %69, ptr %8, align 4
  call void @_ZN7obj_refI4expr11ast_managerED2Ev(ptr noundef nonnull align 8 dereferenceable(16) %12) #3
  br label %70

70:                                               ; preds = %66, %62
  call void @llvm.lifetime.end.p0(i64 16, ptr %12) #3
  br label %71

71:                                               ; preds = %70, %58
  call void @llvm.lifetime.end.p0(i64 8, ptr %11) #3
  br label %72

72:                                               ; preds = %71, %54
  call void @llvm.lifetime.end.p0(i64 8, ptr %10) #3
  br label %75

73:                                               ; preds = %53, %18
  call void @_ZN6bufferIP3appLb0ELj16EED2Ev(ptr noundef nonnull align 8 dereferenceable(144) %6) #3
  call void @llvm.lifetime.end.p0(i64 144, ptr %6) #3
  %74 = load ptr, ptr %3, align 8
  ret ptr %74

75:                                               ; preds = %72, %19
  call void @_ZN6bufferIP3appLb0ELj16EED2Ev(ptr noundef nonnull align 8 dereferenceable(144) %6) #3
  call void @llvm.lifetime.end.p0(i64 144, ptr %6) #3
  br label %76

76:                                               ; preds = %75
  %77 = load ptr, ptr %7, align 8
  %78 = load i32, ptr %8, align 4
  %79 = insertvalue { ptr, i32 } poison, ptr %77, 0
  %80 = insertvalue { ptr, i32 } %79, i32 %78, 1
  resume { ptr, i32 } %80
}