; Function Attrs: mustprogress uwtable
define hidden noundef ptr @_ZN3smt36ext_theory_propagation_justification8mk_proofERNS_19conflict_resolutionE(ptr noundef nonnull readonly align 8 captures(none) dereferenceable(60) %0, ptr noundef nonnull align 8 dereferenceable(356) %1) unnamed_addr #5 align 2 personality ptr @__gxx_personality_v0 {
  %3 = alloca %class.ptr_buffer, align 8
  %4 = alloca %class.obj_ref, align 8
  call void @llvm.lifetime.start.p0(i64 144, ptr nonnull %3) #22
  %5 = getelementptr inbounds nuw i8, ptr %3, i64 16
  store ptr %5, ptr %3, align 8, !tbaa !117
  %6 = getelementptr inbounds nuw i8, ptr %3, i64 8
  store i32 0, ptr %6, align 8, !tbaa !119
  %7 = getelementptr inbounds nuw i8, ptr %3, i64 12
  store i32 16, ptr %7, align 4, !tbaa !120
  %8 = invoke noundef zeroext i1 @_ZN3smt24ext_simple_justification16antecedent2proofERNS_19conflict_resolutionER10ptr_bufferI3appLj16EE(ptr noundef nonnull align 8 dereferenceable(40) %0, ptr noundef nonnull align 8 dereferenceable(356) %1, ptr noundef nonnull align 8 dereferenceable(144) %3)
          to label %9 unwind label %10

9:                                                ; preds = %2
  br i1 %8, label %12, label %46

10:                                               ; preds = %2
  %11 = landingpad { ptr, i32 }
          cleanup
  br label %53

12:                                               ; preds = %9
  %13 = getelementptr inbounds nuw i8, ptr %1, i64 24
  %14 = load ptr, ptr %13, align 8, !tbaa !200
  %15 = getelementptr inbounds nuw i8, ptr %1, i64 8
  %16 = load ptr, ptr %15, align 8, !tbaa !86
  call void @llvm.lifetime.start.p0(i64 16, ptr nonnull %4) #22
  store ptr null, ptr %4, align 8, !tbaa !211
  %17 = getelementptr inbounds nuw i8, ptr %4, i64 8
  store ptr %16, ptr %17, align 8, !tbaa !87
  %18 = getelementptr inbounds nuw i8, ptr %0, i64 56
  %.sroa.0.0.copyload = load i32, ptr %18, align 8, !tbaa !29
  invoke void @_ZNK3smt7context12literal2exprEN3sat7literalER7obj_refI4expr11ast_managerE(ptr noundef nonnull align 8 dereferenceable(10544) %14, i32 %.sroa.0.0.copyload, ptr noundef nonnull align 8 dereferenceable(16) %4)
          to label %19 unwind label %44

19:                                               ; preds = %12
  %20 = getelementptr inbounds nuw i8, ptr %0, i64 40
  %21 = load i32, ptr %20, align 8, !tbaa !694
  %22 = load ptr, ptr %4, align 8, !tbaa !211
  %23 = load i32, ptr %6, align 8, !tbaa !119
  %24 = load ptr, ptr %3, align 8, !tbaa !117
  %25 = getelementptr inbounds nuw i8, ptr %0, i64 48
  %26 = load ptr, ptr %25, align 8, !tbaa !218
  %27 = icmp eq ptr %26, null
  br i1 %27, label %_ZNK6vectorI9parameterLb1EjE4sizeEv.exit, label %28

28:                                               ; preds = %19
  %29 = getelementptr inbounds i8, ptr %26, i64 -4
  %30 = load i32, ptr %29, align 4, !tbaa !29
  br label %_ZNK6vectorI9parameterLb1EjE4sizeEv.exit

_ZNK6vectorI9parameterLb1EjE4sizeEv.exit:         ; preds = %19, %28
  %.0.i = phi i32 [ %30, %28 ], [ 0, %19 ]
  %31 = invoke noundef ptr @_ZN11ast_manager11mk_th_lemmaEiP4exprjPKP3appjPK9parameter(ptr noundef nonnull align 8 dereferenceable(976) %16, i32 noundef %21, ptr noundef %22, i32 noundef %23, ptr noundef %24, i32 noundef %.0.i, ptr noundef %26)
          to label %32 unwind label %44

32:                                               ; preds = %_ZNK6vectorI9parameterLb1EjE4sizeEv.exit
  %33 = load ptr, ptr %4, align 8, !tbaa !211
  %.not.i.i = icmp eq ptr %33, null
  br i1 %.not.i.i, label %_ZN7obj_refI4expr11ast_managerED2Ev.exit, label %34

34:                                               ; preds = %32
  %35 = load ptr, ptr %17, align 8, !tbaa !653
  %36 = getelementptr inbounds nuw i8, ptr %33, i64 8
  %37 = load i32, ptr %36, align 4, !tbaa !13
  %38 = add i32 %37, -1
  store i32 %38, ptr %36, align 4, !tbaa !13
  %39 = icmp eq i32 %38, 0
  br i1 %39, label %40, label %_ZN7obj_refI4expr11ast_managerED2Ev.exit

40:                                               ; preds = %34
  invoke void @_ZN11ast_manager11delete_nodeEP3ast(ptr noundef nonnull align 8 dereferenceable(976) %35, ptr noundef nonnull %33)
          to label %_ZN7obj_refI4expr11ast_managerED2Ev.exit unwind label %41

41:                                               ; preds = %40
  %42 = landingpad { ptr, i32 }
          catch ptr null
  %43 = extractvalue { ptr, i32 } %42, 0
  call void @__clang_call_terminate(ptr %43) #23
  unreachable

_ZN7obj_refI4expr11ast_managerED2Ev.exit:         ; preds = %32, %34, %40
  call void @llvm.lifetime.end.p0(i64 16, ptr nonnull %4) #22
  br label %46

44:                                               ; preds = %_ZNK6vectorI9parameterLb1EjE4sizeEv.exit, %12
  %45 = landingpad { ptr, i32 }
          cleanup
  call void @_ZN7obj_refI4expr11ast_managerED2Ev(ptr noundef nonnull align 8 dereferenceable(16) %4) #22
  call void @llvm.lifetime.end.p0(i64 16, ptr nonnull %4) #22
  br label %53

46:                                               ; preds = %9, %_ZN7obj_refI4expr11ast_managerED2Ev.exit
  %.0 = phi ptr [ %31, %_ZN7obj_refI4expr11ast_managerED2Ev.exit ], [ null, %9 ]
  %47 = load ptr, ptr %3, align 8, !tbaa !117
  %.not.i.i.i = icmp eq ptr %47, %5
  %48 = icmp eq ptr %47, null
  %or.cond.i.i.i = or i1 %.not.i.i.i, %48
  br i1 %or.cond.i.i.i, label %_ZN6bufferIP3appLb0ELj16EED2Ev.exit, label %49

49:                                               ; preds = %46
  invoke void @_ZN6memory10deallocateEPv(ptr noundef nonnull %47)
          to label %_ZN6bufferIP3appLb0ELj16EED2Ev.exit unwind label %50

50:                                               ; preds = %49
  %51 = landingpad { ptr, i32 }
          catch ptr null
  %52 = extractvalue { ptr, i32 } %51, 0
  call void @__clang_call_terminate(ptr %52) #23
  unreachable

_ZN6bufferIP3appLb0ELj16EED2Ev.exit:              ; preds = %46, %49
  call void @llvm.lifetime.end.p0(i64 144, ptr nonnull %3) #22
  ret ptr %.0

53:                                               ; preds = %44, %10
  %.pn = phi { ptr, i32 } [ %45, %44 ], [ %11, %10 ]
  call void @_ZN6bufferIP3appLb0ELj16EED2Ev(ptr noundef nonnull align 8 dereferenceable(144) %3) #22
  call void @llvm.lifetime.end.p0(i64 144, ptr nonnull %3) #22
  resume { ptr, i32 } %.pn
}